Certificate:
    Data:
        Version: 3 (0x2)
        Serial Number: 2 (0x2)
    Signature Algorithm: sha256WithRSAEncryption
        Issuer: CN=DEMO
        Validity
            Not Before: Jan 24 02:29:21 2018 GMT
            Not After : Jan 22 02:29:21 2028 GMT
        Subject: CN=jean-luc.picard
        Subject Public Key Info:
            Public Key Algorithm: rsaEncryption
                Public-Key: (2048 bit)
                Modulus:
                    00:99:ca:14:ae:f5:93:6b:b1:3b:88:01:80:37:72:
                    71:f9:09:1c:f5:f2:c0:17:42:4a:e2:c0:61:b8:a6:
                    7c:e2:c3:06:c2:2a:51:2b:d5:6d:3c:02:96:4c:f8:
                    2f:6f:b9:e1:8d:01:e5:a9:a7:26:7a:c2:c6:30:39:
                    69:8d:01:c3:15:3d:5a:26:d7:d7:e0:30:3a:ce:05:
                    fb:fd:5a:6f:94:bc:a3:4d:b0:79:1c:95:59:ee:7e:
                    b2:02:e2:82:fe:b3:01:3d:01:e7:7a:62:b9:19:57:
                    4e:06:6e:68:67:0d:bc:b3:42:5d:39:bb:cd:58:9f:
                    c0:4d:34:04:02:58:2b:06:84:d6:82:33:a3:a5:22:
                    01:dc:78:0a:c7:73:a6:eb:b0:28:5e:aa:dd:4e:e1:
                    96:a0:0e:43:91:a4:d7:81:92:e8:aa:a6:ee:03:78:
                    0a:46:93:a8:64:32:53:3c:47:30:22:a7:1b:72:8a:
                    2c:a4:60:5f:b5:34:0a:d9:ef:aa:cc:f2:b4:13:49:
                    e6:30:47:f2:a6:65:a7:6d:a0:74:5b:bc:8a:0f:93:
                    84:42:30:a5:fc:26:02:92:ef:28:95:c9:56:8e:6f:
                    b1:3d:2b:76:4b:1a:8c:d6:64:cc:49:da:f8:c2:a0:
                    a3:83:34:06:73:cc:86:07:a8:dd:96:e7:ab:0e:51:
                    08:e7
                Exponent: 65537 (0x10001)
        X509v3 extensions:
            X509v3 Basic Constraints: 
                CA:FALSE
            X509v3 Subject Key Identifier: 
                EE:81:D1:90:51:C5:79:48:2B:86:8D:95:D7:D8:02:E0:10:36:DA:5C
            X509v3 Authority Key Identifier: 
                keyid:62:46:8B:4A:F8:5C:8F:13:B8:34:AF:9D:9C:66:3B:4E:D4:AA:89:D1
                DirName:/CN=DEMO
                serial:C2:DC:DC:96:B3:F0:BE:92

            X509v3 Extended Key Usage: 
                TLS Web Client Authentication
            X509v3 Key Usage: 
                Digital Signature
    Signature Algorithm: sha256WithRSAEncryption
         07:00:a3:75:96:18:af:18:15:b8:3b:0c:7e:5f:4a:ac:70:49:
         97:66:bc:87:dd:6e:cb:01:11:15:89:5d:5f:1f:79:e6:9b:d6:
         5b:d2:37:62:2d:6d:3d:0b:49:03:ab:df:02:e3:4e:a6:68:01:
         94:69:fd:64:cc:2d:54:db:9d:14:b8:1f:4e:bb:f0:74:df:99:
         6f:38:0e:be:90:ab:cb:e9:7e:0b:82:47:1d:ea:ca:58:2f:9e:
         6e:e7:7b:9e:3f:78:b8:db:4f:3e:f4:26:a2:98:ab:4b:a9:b0:
         7c:e6:d4:3d:b9:72:70:8a:5e:ef:4a:99:03:7e:1f:6c:d5:08:
         18:94:44:ec:7d:b0:81:d0:34:7f:a8:23:c9:19:2e:07:f2:d0:
         6d:08:a0:05:9e:3f:ac:be:8f:46:4d:e2:0b:5b:44:e0:d6:24:
         3a:5a:4b:5a:fb:03:9d:42:42:85:f8:2d:7b:4d:fe:ee:ba:01:
         57:2b:89:41:03:8e:c2:61:2f:6e:bb:35:49:ac:9b:0a:b7:11:
         0e:a6:d9:21:1c:81:f5:92:88:f6:7a:4a:c7:33:16:f8:6d:6e:
         ee:fe:8a:6f:4b:3b:d7:2d:17:dc:a8:93:02:ea:8d:61:b7:02:
         03:1e:a4:74:01:4e:57:81:e1:f5:d0:38:ec:20:38:3e:b2:d6:
         9c:62:c5:18
-----BEGIN CERTIFICATE-----
MIIDNTCCAh2gAwIBAgIBAjANBgkqhkiG9w0BAQsFADAPMQ0wCwYDVQQDDARERU1P
MB4XDTE4MDEyNDAyMjkyMVoXDTI4MDEyMjAyMjkyMVowGjEYMBYGA1UEAwwPamVh
bi1sdWMucGljYXJkMIIBIjANBgkqhkiG9w0BAQEFAAOCAQ8AMIIBCgKCAQEAmcoU
rvWTa7E7iAGAN3Jx+Qkc9fLAF0JK4sBhuKZ84sMGwipRK9VtPAKWTPgvb7nhjQHl
qacmesLGMDlpjQHDFT1aJtfX4DA6zgX7/VpvlLyjTbB5HJVZ7n6yAuKC/rMBPQHn
emK5GVdOBm5oZw28s0JdObvNWJ/ATTQEAlgrBoTWgjOjpSIB3HgKx3Om67AoXqrd
TuGWoA5DkaTXgZLoqqbuA3gKRpOoZDJTPEcwIqcbcoospGBftTQK2e+qzPK0E0nm
MEfypmWnbaB0W7yKD5OEQjCl/CYCku8olclWjm+xPSt2SxqM1mTMSdr4wqCjgzQG
c8yGB6jdluerDlEI5wIDAQABo4GQMIGNMAkGA1UdEwQCMAAwHQYDVR0OBBYEFO6B
0ZBRxXlIK4aNldfYAuAQNtpcMD8GA1UdIwQ4MDaAFGJGi0r4XI8TuDSvnZxmO07U
qonRoROkETAPMQ0wCwYDVQQDDARERU1PggkAwtzclrPwvpIwEwYDVR0lBAwwCgYI
KwYBBQUHAwIwCwYDVR0PBAQDAgeAMA0GCSqGSIb3DQEBCwUAA4IBAQAHAKN1lhiv
GBW4Owx+X0qscEmXZryH3W7LAREViV1fH3nmm9Zb0jdiLW09C0kDq98C406maAGU
af1kzC1U250UuB9Ou/B035lvOA6+kKvL6X4Lgkcd6spYL55u53ueP3i4208+9Cai
mKtLqbB85tQ9uXJwil7vSpkDfh9s1QgYlETsfbCB0DR/qCPJGS4H8tBtCKAFnj+s
vo9GTeILW0Tg1iQ6Wkta+wOdQkKF+C17Tf7uugFXK4lBA47CYS9uuzVJrJsKtxEO
ptkhHIH1koj2ekrHMxb4bW7u/opvSzvXLRfcqJMC6o1htwIDHqR0AU5XgeH10Djs
IDg+stacYsUY
-----END CERTIFICATE-----
